; Function Attrs: mustprogress nounwind uwtable
define internal fastcc void @_ZNSt11_Tuple_implILm1EJN8pybind116detail11type_casterISt6vectorIZ18test_submodule_stlRNS0_7module_EE14Issue1561InnerSaIS6_EEvEEEED2Ev(ptr nocapture noundef nonnull readonly align 8 dereferenceable(24) %0) unnamed_addr #0 align 2 personality ptr @__gxx_personality_v0 {
  %2 = load ptr, ptr %0, align 8
  %3 = getelementptr inbounds i8, ptr %0, i64 8
  %4 = load ptr, ptr %3, align 8
  %.not4.i.i.i.i.i.i.i = icmp eq ptr %2, %4
  br i1 %.not4.i.i.i.i.i.i.i, label %_ZSt8_DestroyIPZ18test_submodule_stlRN8pybind117module_EE14Issue1561InnerS3_EvT_S5_RSaIT0_E.exit.i.i.i.i, label %.lr.ph.i.i.i.i.i.i.i

.lr.ph.i.i.i.i.i.i.i:                             ; preds = %1, %.lr.ph.i.i.i.i.i.i.i
  %.05.i.i.i.i.i.i.i = phi ptr [ %5, %.lr.ph.i.i.i.i.i.i.i ], [ %2, %1 ]
  tail call void @_ZNSt7__cxx1112basic_stringIcSt11char_traitsIcESaIcEED1Ev(ptr noundef nonnull align 8 dereferenceable(32) %.05.i.i.i.i.i.i.i) #27
  %5 = getelementptr inbounds i8, ptr %.05.i.i.i.i.i.i.i, i64 32
  %.not.i.i.i.i.i.i.i = icmp eq ptr %5, %4
  br i1 %.not.i.i.i.i.i.i.i, label %_ZSt8_DestroyIPZ18test_submodule_stlRN8pybind117module_EE14Issue1561InnerS3_EvT_S5_RSaIT0_E.exitthread-pre-split.i.i.i.i, label %.lr.ph.i.i.i.i.i.i.i, !llvm.loop !2691

_ZSt8_DestroyIPZ18test_submodule_stlRN8pybind117module_EE14Issue1561InnerS3_EvT_S5_RSaIT0_E.exitthread-pre-split.i.i.i.i: ; preds = %.lr.ph.i.i.i.i.i.i.i
  %.val.pr.i.i.i.i = load ptr, ptr %0, align 8
  br label %_ZSt8_DestroyIPZ18test_submodule_stlRN8pybind117module_EE14Issue1561InnerS3_EvT_S5_RSaIT0_E.exit.i.i.i.i

_ZSt8_DestroyIPZ18test_submodule_stlRN8pybind117module_EE14Issue1561InnerS3_EvT_S5_RSaIT0_E.exit.i.i.i.i: ; preds = %_ZSt8_DestroyIPZ18test_submodule_stlRN8pybind117module_EE14Issue1561InnerS3_EvT_S5_RSaIT0_E.exitthread-pre-split.i.i.i.i, %1
  %.val.i.i.i.i = phi ptr [ %.val.pr.i.i.i.i, %_ZSt8_DestroyIPZ18test_submodule_stlRN8pybind117module_EE14Issue1561InnerS3_EvT_S5_RSaIT0_E.exitthread-pre-split.i.i.i.i ], [ %2, %1 ]
  %.not.i.i.i.i.i.i = icmp eq ptr %.val.i.i.i.i, null
  br i1 %.not.i.i.i.i.i.i, label %_ZNSt10_Head_baseILm1EN8pybind116detail11type_casterISt6vectorIZ18test_submodule_stlRNS0_7module_EE14Issue1561InnerSaIS6_EEvEELb0EED2Ev.exit, label %6

6:                                                ; preds = %_ZSt8_DestroyIPZ18test_submodule_stlRN8pybind117module_EE14Issue1561InnerS3_EvT_S5_RSaIT0_E.exit.i.i.i.i
  tail call void @_ZdlPv(ptr noundef nonnull %.val.i.i.i.i) #32
  br label %_ZNSt10_Head_baseILm1EN8pybind116detail11type_casterISt6vectorIZ18test_submodule_stlRNS0_7module_EE14Issue1561InnerSaIS6_EEvEELb0EED2Ev.exit

_ZNSt10_Head_baseILm1EN8pybind116detail11type_casterISt6vectorIZ18test_submodule_stlRNS0_7module_EE14Issue1561InnerSaIS6_EEvEELb0EED2Ev.exit: ; preds = %_ZSt8_DestroyIPZ18test_submodule_stlRN8pybind117module_EE14Issue1561InnerS3_EvT_S5_RSaIT0_E.exit.i.i.i.i, %6
  ret void
}